target datalayout = "e-m:e-p270:32:32-p271:32:32-p272:64:64-i64:64-i128:128-f80:128-n8:16:32:64-S128"
target triple = "x86_64-pc-linux-gnu"

; Function Attrs: mustprogress uwtable
define linkonce_odr void @_ZN5Ipopt6Vector17ElementWiseDivideERKS0_(ptr noundef nonnull align 8 dereferenceable(205) %0, ptr noundef nonnull align 8 dereferenceable(205) %1) #0 comdat align 2 {
  %3 = alloca ptr, align 8
  %4 = alloca ptr, align 8
  store ptr %0, ptr %3, align 8
  store ptr %1, ptr %4, align 8
  %5 = load ptr, ptr %3, align 8
  %6 = load ptr, ptr %4, align 8
  %7 = load ptr, ptr %5, align 8
  %8 = getelementptr inbounds ptr, ptr %7, i64 10
  %9 = load ptr, ptr %8, align 8
  call void %9(ptr noundef nonnull align 8 dereferenceable(205) %5, ptr noundef nonnull align 8 dereferenceable(205) %6)
  call void @_ZN5Ipopt12TaggedObject13ObjectChangedEv(ptr noundef nonnull align 8 dereferenceable(56) %5)
  ret void
}

; Function Attrs: mustprogress uwtable
define linkonce_odr void @_ZN5Ipopt6Vector4AxpyEdRKS0_(ptr noundef nonnull align 8 dereferenceable(205) %0, double noundef %1, ptr noundef nonnull align 8 dereferenceable(205) %2) #0 comdat align 2 {
  %4 = alloca ptr, align 8
  %5 = alloca double, align 8
  %6 = alloca ptr, align 8
  store ptr %0, ptr %4, align 8
  store double %1, ptr %5, align 8
  store ptr %2, ptr %6, align 8
  %7 = load ptr, ptr %4, align 8
  %8 = load double, ptr %5, align 8
  %9 = load ptr, ptr %6, align 8
  %10 = load ptr, ptr %7, align 8
  %11 = getelementptr inbounds ptr, ptr %10, i64 4
  %12 = load ptr, ptr %11, align 8
  call void %12(ptr noundef nonnull align 8 dereferenceable(205) %7, double noundef %8, ptr noundef nonnull align 8 dereferenceable(205) %9)
  call void @_ZN5Ipopt12TaggedObject13ObjectChangedEv(ptr noundef nonnull align 8 dereferenceable(56) %7)
  ret void
}

; Function Attrs: mustprogress uwtable
define linkonce_odr void @_ZN5Ipopt6Vector19ElementWiseMultiplyERKS0_(ptr noundef nonnull align 8 dereferenceable(205) %0, ptr noundef nonnull align 8 dereferenceable(205) %1) #0 comdat align 2 {
  %3 = alloca ptr, align 8
  %4 = alloca ptr, align 8
  store ptr %0, ptr %3, align 8
  store ptr %1, ptr %4, align 8
  %5 = load ptr, ptr %3, align 8
  %6 = load ptr, ptr %4, align 8
  %7 = load ptr, ptr %5, align 8
  %8 = getelementptr inbounds ptr, ptr %7, i64 11
  %9 = load ptr, ptr %8, align 8
  call void %9(ptr noundef nonnull align 8 dereferenceable(205) %5, ptr noundef nonnull align 8 dereferenceable(205) %6)
  call void @_ZN5Ipopt12TaggedObject13ObjectChangedEv(ptr noundef nonnull align 8 dereferenceable(56) %5)
  ret void
}

; Function Attrs: mustprogress uwtable
define linkonce_odr void @_ZNK5Ipopt6Matrix15TransMultVectorEdRKNS_6VectorEdRS1_(ptr noundef nonnull align 8 dereferenceable(69) %0, double noundef %1, ptr noundef nonnull align 8 dereferenceable(205) %2, double noundef %3, ptr noundef nonnull align 8 dereferenceable(205) %4) #0 comdat align 2 {
  %6 = alloca ptr, align 8
  %7 = alloca double, align 8
  %8 = alloca ptr, align 8
  %9 = alloca double, align 8
  %10 = alloca ptr, align 8
  store ptr %0, ptr %6, align 8
  store double %1, ptr %7, align 8
  store ptr %2, ptr %8, align 8
  store double %3, ptr %9, align 8
  store ptr %4, ptr %10, align 8
  %11 = load ptr, ptr %6, align 8
  %12 = load double, ptr %7, align 8
  %13 = load ptr, ptr %8, align 8
  %14 = load double, ptr %9, align 8
  %15 = load ptr, ptr %10, align 8
  %16 = load ptr, ptr %11, align 8
  %17 = getelementptr inbounds ptr, ptr %16, i64 5
  %18 = load ptr, ptr %17, align 8
  call void %18(ptr noundef nonnull align 8 dereferenceable(69) %11, double noundef %12, ptr noundef nonnull align 8 dereferenceable(205) %13, double noundef %14, ptr noundef nonnull align 8 dereferenceable(205) %15)
  ret void
}

; Function Attrs: mustprogress uwtable
define void @_ZNK5Ipopt12ScaledMatrix18SinvBlrmZMTdBrImplEdRKNS_6VectorES3_S3_S3_RS1_(ptr noundef nonnull align 8 dereferenceable(96) %0, double noundef %1, ptr noundef nonnull align 8 dereferenceable(205) %2, ptr noundef nonnull align 8 dereferenceable(205) %3, ptr noundef nonnull align 8 dereferenceable(205) %4, ptr noundef nonnull align 8 dereferenceable(205) %5, ptr noundef nonnull align 8 dereferenceable(205) %6) unnamed_addr #0 align 2 {
  %8 = alloca ptr, align 8
  %9 = alloca double, align 8
  %10 = alloca ptr, align 8
  %11 = alloca ptr, align 8
  %12 = alloca ptr, align 8
  %13 = alloca ptr, align 8
  %14 = alloca ptr, align 8
  store ptr %0, ptr %8, align 8
  store double %1, ptr %9, align 8
  store ptr %2, ptr %10, align 8
  store ptr %3, ptr %11, align 8
  store ptr %4, ptr %12, align 8
  store ptr %5, ptr %13, align 8
  store ptr %6, ptr %14, align 8
  %15 = load ptr, ptr %8, align 8
  %16 = load double, ptr %9, align 8
  %17 = load ptr, ptr %13, align 8
  %18 = load ptr, ptr %14, align 8
  call void @_ZNK5Ipopt6Matrix15TransMultVectorEdRKNS_6VectorEdRS1_(ptr noundef nonnull align 8 dereferenceable(69) %15, double noundef %16, ptr noundef nonnull align 8 dereferenceable(205) %17, double noundef 0.000000e+00, ptr noundef nonnull align 8 dereferenceable(205) %18)
  %19 = load ptr, ptr %14, align 8
  %20 = load ptr, ptr %12, align 8
  call void @_ZN5Ipopt6Vector19ElementWiseMultiplyERKS0_(ptr noundef nonnull align 8 dereferenceable(205) %19, ptr noundef nonnull align 8 dereferenceable(205) %20)
  %21 = load ptr, ptr %14, align 8
  %22 = load ptr, ptr %11, align 8
  call void @_ZN5Ipopt6Vector4AxpyEdRKS0_(ptr noundef nonnull align 8 dereferenceable(205) %21, double noundef 1.000000e+00, ptr noundef nonnull align 8 dereferenceable(205) %22)
  %23 = load ptr, ptr %14, align 8
  %24 = load ptr, ptr %10, align 8
  call void @_ZN5Ipopt6Vector17ElementWiseDivideERKS0_(ptr noundef nonnull align 8 dereferenceable(205) %23, ptr noundef nonnull align 8 dereferenceable(205) %24)
  ret void
}